#include <math.h>
#include <stdio.h>
#include <stdlib.h>
#include <string.h>

void main()
{
	int i,j,k=0,m=1,n,a[20000],b[20000];
	scanf("%d",&n);
	for(i=0;i<n;i++)
	{
		scanf("%d",&a[i]);
	}
	b[0]=a[0];
	for(i=1;i<n;i++)
	{
		for(j=0;j<i;j++)
		{
			if(a[i]==a[j])
			{
				k++;
			}
		}
		if(k==0)
		{
			b[m]=a[i];
			m++;
		}
		k=0;
	}
	printf("%d",b[0]);
	for(i=1;i<m;i++)
	{
		printf(" %d",b[i]);
	}
}